; ModuleID = '19/13.c'
source_filename = "19/13.c"
target datalayout = "e-m:e-p270:32:32-p271:32:32-p272:64:64-i64:64-f80:128-n8:16:32:64-S128"
target triple = "x86_64-pc-linux-gnu"

@.str = private unnamed_addr constant [3 x i8] c"%s\00", align 1

; Function Attrs: noinline nounwind uwtable
define dso_local i32 @main() #0 {
  %1 = alloca i32, align 4
  %2 = alloca i32, align 4
  %3 = alloca i32, align 4
  %4 = alloca i32, align 4
  %5 = alloca i32, align 4
  %6 = alloca [100 x i8], align 16
  %7 = alloca [100 x i8], align 16
  %8 = alloca [100 x i8], align 16
  %9 = alloca [100 x i8], align 16
  %10 = alloca [100 x i8], align 16
  store i32 0, i32* %1, align 4
  store i32 -1, i32* %5, align 4
  %11 = getelementptr inbounds [100 x i8], [100 x i8]* %6, i64 0, i64 0
  %12 = call i32 (i8*, ...) bitcast (i32 (...)* @gets to i32 (i8*, ...)*)(i8* %11)
  %13 = getelementptr inbounds [100 x i8], [100 x i8]* %7, i64 0, i64 0
  %14 = call i32 (i8*, ...) bitcast (i32 (...)* @gets to i32 (i8*, ...)*)(i8* %13)
  %15 = getelementptr inbounds [100 x i8], [100 x i8]* %8, i64 0, i64 0
  %16 = call i32 (i8*, ...) bitcast (i32 (...)* @gets to i32 (i8*, ...)*)(i8* %15)
  %17 = getelementptr inbounds [100 x i8], [100 x i8]* %6, i64 0, i64 -1
  store i8 32, i8* %17, align 1
  store i32 -1, i32* %2, align 4
  br label %18

18:                                               ; preds = %110, %0
  %19 = load i32, i32* %2, align 4
  %20 = icmp sle i32 %19, 100
  br i1 %20, label %21, label %115

21:                                               ; preds = %18
  %22 = load i32, i32* %2, align 4
  %23 = sext i32 %22 to i64
  %24 = getelementptr inbounds [100 x i8], [100 x i8]* %6, i64 0, i64 %23
  %25 = load i8, i8* %24, align 1
  %26 = load i32, i32* %5, align 4
  %27 = sext i32 %26 to i64
  %28 = getelementptr inbounds [100 x i8], [100 x i8]* %9, i64 0, i64 %27
  store i8 %25, i8* %28, align 1
  %29 = load i32, i32* %2, align 4
  %30 = sext i32 %29 to i64
  %31 = getelementptr inbounds [100 x i8], [100 x i8]* %6, i64 0, i64 %30
  %32 = load i8, i8* %31, align 1
  %33 = sext i8 %32 to i32
  %34 = icmp eq i32 %33, 32
  br i1 %34, label %35, label %110

35:                                               ; preds = %21
  %36 = load i32, i32* %2, align 4
  %37 = add nsw i32 %36, 1
  %38 = sext i32 %37 to i64
  %39 = getelementptr inbounds [100 x i8], [100 x i8]* %6, i64 0, i64 %38
  %40 = load i8, i8* %39, align 1
  %41 = sext i8 %40 to i32
  %42 = getelementptr inbounds [100 x i8], [100 x i8]* %7, i64 0, i64 0
  %43 = load i8, i8* %42, align 16
  %44 = sext i8 %43 to i32
  %45 = icmp eq i32 %41, %44
  br i1 %45, label %46, label %110

46:                                               ; preds = %35
  store i32 0, i32* %3, align 4
  br label %47

47:                                               ; preds = %106, %46
  %48 = load i32, i32* %3, align 4
  %49 = sext i32 %48 to i64
  %50 = getelementptr inbounds [100 x i8], [100 x i8]* %7, i64 0, i64 %49
  %51 = load i8, i8* %50, align 1
  %52 = sext i8 %51 to i32
  %53 = icmp eq i32 %52, 0
  br i1 %53, label %54, label %89

54:                                               ; preds = %47
  store i32 0, i32* %4, align 4
  br label %55

55:                                               ; preds = %73, %54
  %56 = load i32, i32* %4, align 4
  %57 = sext i32 %56 to i64
  %58 = getelementptr inbounds [100 x i8], [100 x i8]* %8, i64 0, i64 %57
  %59 = load i8, i8* %58, align 1
  %60 = sext i8 %59 to i32
  %61 = icmp ne i32 %60, 0
  br i1 %61, label %62, label %76

62:                                               ; preds = %55
  %63 = load i32, i32* %4, align 4
  %64 = sext i32 %63 to i64
  %65 = getelementptr inbounds [100 x i8], [100 x i8]* %8, i64 0, i64 %64
  %66 = load i8, i8* %65, align 1
  %67 = load i32, i32* %5, align 4
  %68 = load i32, i32* %4, align 4
  %69 = add nsw i32 %67, %68
  %70 = add nsw i32 %69, 1
  %71 = sext i32 %70 to i64
  %72 = getelementptr inbounds [100 x i8], [100 x i8]* %9, i64 0, i64 %71
  store i8 %66, i8* %72, align 1
  br label %73

73:                                               ; preds = %62
  %74 = load i32, i32* %4, align 4
  %75 = add nsw i32 %74, 1
  store i32 %75, i32* %4, align 4
  br label %55

76:                                               ; preds = %55
  %77 = load i32, i32* %5, align 4
  %78 = load i32, i32* %4, align 4
  %79 = add nsw i32 %77, %78
  %80 = add nsw i32 %79, 1
  %81 = sext i32 %80 to i64
  %82 = getelementptr inbounds [100 x i8], [100 x i8]* %9, i64 0, i64 %81
  store i8 32, i8* %82, align 1
  %83 = load i32, i32* %5, align 4
  %84 = load i32, i32* %4, align 4
  %85 = add nsw i32 %83, %84
  store i32 %85, i32* %5, align 4
  %86 = load i32, i32* %2, align 4
  %87 = load i32, i32* %3, align 4
  %88 = add nsw i32 %86, %87
  store i32 %88, i32* %2, align 4
  br label %109

89:                                               ; preds = %47
  %90 = load i32, i32* %2, align 4
  %91 = load i32, i32* %3, align 4
  %92 = add nsw i32 %90, %91
  %93 = add nsw i32 %92, 1
  %94 = sext i32 %93 to i64
  %95 = getelementptr inbounds [100 x i8], [100 x i8]* %6, i64 0, i64 %94
  %96 = load i8, i8* %95, align 1
  %97 = sext i8 %96 to i32
  %98 = load i32, i32* %3, align 4
  %99 = sext i32 %98 to i64
  %100 = getelementptr inbounds [100 x i8], [100 x i8]* %7, i64 0, i64 %99
  %101 = load i8, i8* %100, align 1
  %102 = sext i8 %101 to i32
  %103 = icmp ne i32 %97, %102
  br i1 %103, label %104, label %105

104:                                              ; preds = %89
  br label %109

105:                                              ; preds = %89
  br label %106

106:                                              ; preds = %105
  %107 = load i32, i32* %3, align 4
  %108 = add nsw i32 %107, 1
  store i32 %108, i32* %3, align 4
  br label %47

109:                                              ; preds = %104, %76
  br label %110

110:                                              ; preds = %109, %35, %21
  %111 = load i32, i32* %2, align 4
  %112 = add nsw i32 %111, 1
  store i32 %112, i32* %2, align 4
  %113 = load i32, i32* %5, align 4
  %114 = add nsw i32 %113, 1
  store i32 %114, i32* %5, align 4
  br label %18

115:                                              ; preds = %18
  %116 = getelementptr inbounds [100 x i8], [100 x i8]* %9, i64 0, i64 0
  %117 = call i32 (i8*, ...) @printf(i8* getelementptr inbounds ([3 x i8], [3 x i8]* @.str, i64 0, i64 0), i8* %116)
  %118 = load i32, i32* %1, align 4
  ret i32 %118
}

declare dso_local i32 @gets(...) #1

declare dso_local i32 @printf(i8*, ...) #1


!llvm.module.flags = !{!0}
!llvm.ident = !{!1}

!0 = !{i32 1, !"wchar_size", i32 4}
!1 = !{!"clang version 10.0.0-4ubuntu1 "}
